; Function Attrs: null_pointer_is_valid sspstrong uwtable
define internal i32 @dissect_e2ap_RICeventTriggerDefinition(ptr noundef %0, i32 noundef %1, ptr noundef %2, ptr noundef %3, i32 noundef %4) #2 {
  %6 = alloca ptr, align 8
  call void @llvm.lifetime.start.p0(i64 8, ptr nonnull %6) #12
  %7 = call i32 @dissect_per_octet_string(ptr noundef %0, i32 noundef %1, ptr noundef %2, ptr noundef %3, i32 noundef %4, i32 noundef -1, i32 noundef -1, i1 noundef zeroext false, ptr noundef nonnull %6)
  %8 = getelementptr inbounds nuw i8, ptr %2, i64 16
  %9 = load ptr, ptr %8, align 8
  %10 = load ptr, ptr %6, align 8
  %11 = call fastcc ptr @lookup_ranfunction_dissector(ptr noundef %9, ptr noundef %3, ptr noundef %10)
  %.not = icmp eq ptr %11, null
  br i1 %.not, label %19, label %12

12:                                               ; preds = %5
  %13 = getelementptr inbounds nuw i8, ptr %11, i64 1104
  %14 = load ptr, ptr %13, align 8
  %.not13 = icmp eq ptr %14, null
  br i1 %.not13, label %19, label %15

15:                                               ; preds = %12
  %16 = load ptr, ptr %6, align 8
  %17 = load ptr, ptr %8, align 8
  %18 = call i32 %14(ptr noundef %16, ptr noundef %17, ptr noundef %3, ptr noundef null)
  br label %19

19:                                               ; preds = %12, %15, %5
  call void @llvm.lifetime.end.p0(i64 8, ptr nonnull %6) #12
  ret i32 %7
}